; Function Attrs: mustprogress nofree norecurse nosync nounwind willreturn memory(read, inaccessiblemem: none) uwtable
define hidden noundef ptr @_ZN9CodeCache13get_code_heapE12CodeBlobType(i32 noundef %0) local_unnamed_addr #5 align 2 {
  %2 = load ptr, ptr @_ZN9CodeCache6_heapsE, align 8
  %3 = load i32, ptr %2, align 4
  %.not8 = icmp eq i32 %3, 0
  br i1 %.not8, label %._crit_edge, label %.lr.ph

.lr.ph:                                           ; preds = %1
  %4 = getelementptr inbounds i8, ptr %2, i64 8
  %5 = load ptr, ptr %4, align 8
  %6 = zext i32 %3 to i64
  br label %8

7:                                                ; preds = %8
  %indvars.iv.next = add nuw nsw i64 %indvars.iv, 1
  %.not = icmp eq i64 %indvars.iv.next, %6
  br i1 %.not, label %._crit_edge, label %8, !llvm.loop !23

8:                                                ; preds = %.lr.ph, %7
  %indvars.iv = phi i64 [ 0, %.lr.ph ], [ %indvars.iv.next, %7 ]
  %9 = getelementptr inbounds ptr, ptr %5, i64 %indvars.iv
  %10 = load ptr, ptr %9, align 8
  %11 = getelementptr inbounds i8, ptr %10, i64 312
  %12 = load i32, ptr %11, align 8
  %13 = icmp eq i32 %12, 3
  %14 = icmp eq i32 %12, %0
  %spec.select.i = or i1 %13, %14
  br i1 %spec.select.i, label %._crit_edge, label %7

._crit_edge:                                      ; preds = %7, %8, %1
  %.0 = phi ptr [ null, %1 ], [ %10, %8 ], [ null, %7 ]
  ret ptr %.0
}